target datalayout = "e-m:e-p270:32:32-p271:32:32-p272:64:64-i64:64-i128:128-f80:128-n8:16:32:64-S128"
target triple = "x86_64-pc-linux-gnu"

%struct.DefElem = type { i32, ptr, ptr, ptr, i32, i32 }
%struct.Node = type { i32 }
%struct.Integer = type { i32, i32 }
%struct.Float = type { i32, ptr }

@.str.1 = private unnamed_addr constant [9 x i8] c"define.c\00", align 1
@.str.7 = private unnamed_addr constant [28 x i8] c"%s requires a numeric value\00", align 1
@__func__.defGetObjectId = private unnamed_addr constant [15 x i8] c"defGetObjectId\00", align 1

; Function Attrs: inlinehint nounwind uwtable
define internal i64 @PointerGetDatum(ptr noundef %0) #5 {
  %2 = alloca ptr, align 8
  store ptr %0, ptr %2, align 8
  %3 = load ptr, ptr %2, align 8
  %4 = ptrtoint ptr %3 to i64
  ret i64 %4
}

; Function Attrs: inlinehint nounwind uwtable
define internal i32 @DatumGetObjectId(i64 noundef %0) #5 {
  %2 = alloca i64, align 8
  store i64 %0, ptr %2, align 8
  %3 = load i64, ptr %2, align 8
  %4 = trunc i64 %3 to i32
  ret i32 %4
}

; Function Attrs: inlinehint nounwind uwtable
define internal i64 @CStringGetDatum(ptr noundef %0) #5 {
  %2 = alloca ptr, align 8
  store ptr %0, ptr %2, align 8
  %3 = load ptr, ptr %2, align 8
  %4 = call i64 @PointerGetDatum(ptr noundef %3)
  ret i64 %4
}

; Function Attrs: nounwind uwtable
define dso_local i32 @defGetObjectId(ptr noundef %0) #0 {
  %2 = alloca i32, align 4
  %3 = alloca ptr, align 8
  store ptr %0, ptr %3, align 8
  %4 = load ptr, ptr %3, align 8
  %5 = getelementptr inbounds nuw %struct.DefElem, ptr %4, i32 0, i32 3
  %6 = load ptr, ptr %5, align 8
  %7 = icmp eq ptr %6, null
  br i1 %7, label %8, label %22

8:                                                ; preds = %1
  br label %9

9:                                                ; preds = %8
  br i1 true, label %10, label %12

10:                                               ; preds = %9
  %11 = call zeroext i1 @errstart_cold(i32 noundef 21, ptr noundef null) #9
  br i1 %11, label %14, label %20

12:                                               ; preds = %9
  %13 = call zeroext i1 @errstart(i32 noundef 21, ptr noundef null)
  br i1 %13, label %14, label %20

14:                                               ; preds = %12, %10
  %15 = call i32 @errcode(i32 noundef 16801924)
  %16 = load ptr, ptr %3, align 8
  %17 = getelementptr inbounds nuw %struct.DefElem, ptr %16, i32 0, i32 2
  %18 = load ptr, ptr %17, align 8
  %19 = call i32 (ptr, ...) @errmsg(ptr noundef @.str.7, ptr noundef %18)
  call void @errfinish(ptr noundef @.str.1, i32 noundef 212, ptr noundef @__func__.defGetObjectId)
  br label %20

20:                                               ; preds = %14, %12, %10
  unreachable

21:                                               ; No predecessors!
  br label %22

22:                                               ; preds = %21, %1
  %23 = load ptr, ptr %3, align 8
  %24 = getelementptr inbounds nuw %struct.DefElem, ptr %23, i32 0, i32 3
  %25 = load ptr, ptr %24, align 8
  %26 = getelementptr inbounds nuw %struct.Node, ptr %25, i32 0, i32 0
  %27 = load i32, ptr %26, align 4
  switch i32 %27, label %43 [
    i32 464, label %28
    i32 465, label %34
  ]

28:                                               ; preds = %22
  %29 = load ptr, ptr %3, align 8
  %30 = getelementptr inbounds nuw %struct.DefElem, ptr %29, i32 0, i32 3
  %31 = load ptr, ptr %30, align 8
  %32 = getelementptr inbounds nuw %struct.Integer, ptr %31, i32 0, i32 1
  %33 = load i32, ptr %32, align 4
  store i32 %33, ptr %2, align 4
  br label %58

34:                                               ; preds = %22
  %35 = load ptr, ptr %3, align 8
  %36 = getelementptr inbounds nuw %struct.DefElem, ptr %35, i32 0, i32 3
  %37 = load ptr, ptr %36, align 8
  %38 = getelementptr inbounds nuw %struct.Float, ptr %37, i32 0, i32 1
  %39 = load ptr, ptr %38, align 8
  %40 = call i64 @CStringGetDatum(ptr noundef %39)
  %41 = call i64 @DirectFunctionCall1Coll(ptr noundef @oidin, i32 noundef 0, i64 noundef %40)
  %42 = call i32 @DatumGetObjectId(i64 noundef %41)
  store i32 %42, ptr %2, align 4
  br label %58

43:                                               ; preds = %22
  br label %44

44:                                               ; preds = %43
  br i1 true, label %45, label %47

45:                                               ; preds = %44
  %46 = call zeroext i1 @errstart_cold(i32 noundef 21, ptr noundef null) #9
  br i1 %46, label %49, label %55

47:                                               ; preds = %44
  %48 = call zeroext i1 @errstart(i32 noundef 21, ptr noundef null)
  br i1 %48, label %49, label %55

49:                                               ; preds = %47, %45
  %50 = call i32 @errcode(i32 noundef 16801924)
  %51 = load ptr, ptr %3, align 8
  %52 = getelementptr inbounds nuw %struct.DefElem, ptr %51, i32 0, i32 2
  %53 = load ptr, ptr %52, align 8
  %54 = call i32 (ptr, ...) @errmsg(ptr noundef @.str.7, ptr noundef %53)
  call void @errfinish(ptr noundef @.str.1, i32 noundef 230, ptr noundef @__func__.defGetObjectId)
  br label %55

55:                                               ; preds = %49, %47, %45
  unreachable

56:                                               ; No predecessors!
  br label %57

57:                                               ; preds = %56
  store i32 0, ptr %2, align 4
  br label %58

58:                                               ; preds = %57, %34, %28
  %59 = load i32, ptr %2, align 4
  ret i32 %59
}